; Function Attrs: null_pointer_is_valid sspstrong uwtable
define i32 @address_to_bytes(ptr noundef %0, ptr noundef %1, i32 noundef %2) local_unnamed_addr #6 {
  %4 = icmp ne ptr %1, null
  %5 = icmp ne i32 %2, 0
  %or.cond = and i1 %4, %5
  br i1 %or.cond, label %6, label %24

6:                                                ; preds = %3
  %7 = load i32, ptr %0, align 8
  %8 = sext i32 %7 to i64
  %9 = getelementptr [45 x ptr], ptr @type_list, i64 0, i64 %8
  %10 = load ptr, ptr %9, align 8
  %11 = icmp eq ptr %10, null
  br i1 %11, label %24, label %12

12:                                               ; preds = %6
  %13 = getelementptr inbounds nuw i8, ptr %10, i64 40
  %14 = load ptr, ptr %13, align 8
  %15 = icmp eq ptr %14, null
  br i1 %15, label %16, label %22

16:                                               ; preds = %12
  %17 = getelementptr inbounds nuw i8, ptr %0, i64 4
  %18 = load i32, ptr %17, align 4
  %. = tail call i32 @llvm.umin.i32(i32 %18, i32 %2)
  %19 = getelementptr inbounds nuw i8, ptr %0, i64 8
  %20 = load ptr, ptr %19, align 8
  %21 = zext i32 %. to i64
  tail call void @llvm.memcpy.p0.p0.i64(ptr noundef nonnull align 1 %1, ptr noundef align 1 %20, i64 noundef range(i64 0, 4294967296) %21, i1 noundef false) #18
  br label %24

22:                                               ; preds = %12
  %23 = tail call i32 %14(ptr noundef %0, ptr noundef nonnull %1, i32 noundef %2)
  br label %24

24:                                               ; preds = %16, %22, %6, %3
  %.018 = phi i32 [ 0, %3 ], [ 0, %6 ], [ %., %16 ], [ %23, %22 ]
  ret i32 %.018
}